; ModuleID = '37/895.c'
source_filename = "37/895.c"
target datalayout = "e-m:e-p270:32:32-p271:32:32-p272:64:64-i64:64-f80:128-n8:16:32:64-S128"
target triple = "x86_64-pc-linux-gnu"

@.str = private unnamed_addr constant [4 x i8] c"%d\0A\00", align 1
@.str.1 = private unnamed_addr constant [3 x i8] c"%c\00", align 1
@.str.2 = private unnamed_addr constant [4 x i8] c"%c\0A\00", align 1
@.str.3 = private unnamed_addr constant [4 x i8] c"no\0A\00", align 1

; Function Attrs: noinline nounwind uwtable
define dso_local i32 @main() #0 {
  %1 = alloca i32, align 4
  %2 = alloca i32, align 4
  %3 = alloca i32, align 4
  %4 = alloca i32, align 4
  %5 = alloca [100001 x i32], align 16
  %6 = alloca i32, align 4
  %7 = alloca [100001 x i8], align 16
  %8 = alloca i32, align 4
  store i32 0, i32* %1, align 4
  %9 = call i32 (i8*, ...) @__isoc99_scanf(i8* getelementptr inbounds ([4 x i8], [4 x i8]* @.str, i64 0, i64 0), i32* %2)
  store i32 0, i32* %4, align 4
  br label %10

10:                                               ; preds = %17, %0
  %11 = load i32, i32* %4, align 4
  %12 = icmp slt i32 %11, 100000
  br i1 %12, label %13, label %20

13:                                               ; preds = %10
  %14 = load i32, i32* %4, align 4
  %15 = sext i32 %14 to i64
  %16 = getelementptr inbounds [100001 x i32], [100001 x i32]* %5, i64 0, i64 %15
  store i32 1, i32* %16, align 4
  br label %17

17:                                               ; preds = %13
  %18 = load i32, i32* %4, align 4
  %19 = add nsw i32 %18, 1
  store i32 %19, i32* %4, align 4
  br label %10

20:                                               ; preds = %10
  store i32 0, i32* %8, align 4
  br label %21

21:                                               ; preds = %123, %20
  %22 = load i32, i32* %8, align 4
  %23 = load i32, i32* %2, align 4
  %24 = icmp slt i32 %22, %23
  br i1 %24, label %25, label %126

25:                                               ; preds = %21
  store i32 0, i32* %4, align 4
  br label %26

26:                                               ; preds = %39, %25
  %27 = load i32, i32* %4, align 4
  %28 = sext i32 %27 to i64
  %29 = getelementptr inbounds [100001 x i8], [100001 x i8]* %7, i64 0, i64 %28
  %30 = call i32 (i8*, ...) @__isoc99_scanf(i8* getelementptr inbounds ([3 x i8], [3 x i8]* @.str.1, i64 0, i64 0), i8* %29)
  %31 = load i32, i32* %4, align 4
  %32 = sext i32 %31 to i64
  %33 = getelementptr inbounds [100001 x i8], [100001 x i8]* %7, i64 0, i64 %32
  %34 = load i8, i8* %33, align 1
  %35 = sext i8 %34 to i32
  %36 = icmp eq i32 %35, 10
  br i1 %36, label %37, label %38

37:                                               ; preds = %26
  br label %42

38:                                               ; preds = %26
  br label %39

39:                                               ; preds = %38
  %40 = load i32, i32* %4, align 4
  %41 = add nsw i32 %40, 1
  store i32 %41, i32* %4, align 4
  br label %26

42:                                               ; preds = %37
  %43 = load i32, i32* %4, align 4
  store i32 %43, i32* %3, align 4
  store i32 0, i32* %4, align 4
  br label %44

44:                                               ; preds = %80, %42
  %45 = load i32, i32* %4, align 4
  %46 = load i32, i32* %3, align 4
  %47 = sub nsw i32 %46, 1
  %48 = icmp slt i32 %45, %47
  br i1 %48, label %49, label %83

49:                                               ; preds = %44
  %50 = load i32, i32* %4, align 4
  %51 = add nsw i32 %50, 1
  store i32 %51, i32* %6, align 4
  br label %52

52:                                               ; preds = %76, %49
  %53 = load i32, i32* %6, align 4
  %54 = load i32, i32* %3, align 4
  %55 = icmp slt i32 %53, %54
  br i1 %55, label %56, label %79

56:                                               ; preds = %52
  %57 = load i32, i32* %4, align 4
  %58 = sext i32 %57 to i64
  %59 = getelementptr inbounds [100001 x i8], [100001 x i8]* %7, i64 0, i64 %58
  %60 = load i8, i8* %59, align 1
  %61 = sext i8 %60 to i32
  %62 = load i32, i32* %6, align 4
  %63 = sext i32 %62 to i64
  %64 = getelementptr inbounds [100001 x i8], [100001 x i8]* %7, i64 0, i64 %63
  %65 = load i8, i8* %64, align 1
  %66 = sext i8 %65 to i32
  %67 = icmp eq i32 %61, %66
  br i1 %67, label %68, label %75

68:                                               ; preds = %56
  %69 = load i32, i32* %4, align 4
  %70 = sext i32 %69 to i64
  %71 = getelementptr inbounds [100001 x i32], [100001 x i32]* %5, i64 0, i64 %70
  store i32 0, i32* %71, align 4
  %72 = load i32, i32* %6, align 4
  %73 = sext i32 %72 to i64
  %74 = getelementptr inbounds [100001 x i32], [100001 x i32]* %5, i64 0, i64 %73
  store i32 0, i32* %74, align 4
  br label %75

75:                                               ; preds = %68, %56
  br label %76

76:                                               ; preds = %75
  %77 = load i32, i32* %6, align 4
  %78 = add nsw i32 %77, 1
  store i32 %78, i32* %6, align 4
  br label %52

79:                                               ; preds = %52
  br label %80

80:                                               ; preds = %79
  %81 = load i32, i32* %4, align 4
  %82 = add nsw i32 %81, 1
  store i32 %82, i32* %4, align 4
  br label %44

83:                                               ; preds = %44
  store i32 0, i32* %4, align 4
  br label %84

84:                                               ; preds = %102, %83
  %85 = load i32, i32* %4, align 4
  %86 = load i32, i32* %3, align 4
  %87 = icmp slt i32 %85, %86
  br i1 %87, label %88, label %105

88:                                               ; preds = %84
  %89 = load i32, i32* %4, align 4
  %90 = sext i32 %89 to i64
  %91 = getelementptr inbounds [100001 x i32], [100001 x i32]* %5, i64 0, i64 %90
  %92 = load i32, i32* %91, align 4
  %93 = icmp eq i32 %92, 1
  br i1 %93, label %94, label %101

94:                                               ; preds = %88
  %95 = load i32, i32* %4, align 4
  %96 = sext i32 %95 to i64
  %97 = getelementptr inbounds [100001 x i8], [100001 x i8]* %7, i64 0, i64 %96
  %98 = load i8, i8* %97, align 1
  %99 = sext i8 %98 to i32
  %100 = call i32 (i8*, ...) @printf(i8* getelementptr inbounds ([4 x i8], [4 x i8]* @.str.2, i64 0, i64 0), i32 %99)
  br label %105

101:                                              ; preds = %88
  br label %102

102:                                              ; preds = %101
  %103 = load i32, i32* %4, align 4
  %104 = add nsw i32 %103, 1
  store i32 %104, i32* %4, align 4
  br label %84

105:                                              ; preds = %94, %84
  %106 = load i32, i32* %4, align 4
  %107 = load i32, i32* %3, align 4
  %108 = icmp eq i32 %106, %107
  br i1 %108, label %109, label %111

109:                                              ; preds = %105
  %110 = call i32 (i8*, ...) @printf(i8* getelementptr inbounds ([4 x i8], [4 x i8]* @.str.3, i64 0, i64 0))
  br label %111

111:                                              ; preds = %109, %105
  store i32 0, i32* %4, align 4
  br label %112

112:                                              ; preds = %119, %111
  %113 = load i32, i32* %4, align 4
  %114 = icmp slt i32 %113, 100000
  br i1 %114, label %115, label %122

115:                                              ; preds = %112
  %116 = load i32, i32* %4, align 4
  %117 = sext i32 %116 to i64
  %118 = getelementptr inbounds [100001 x i32], [100001 x i32]* %5, i64 0, i64 %117
  store i32 1, i32* %118, align 4
  br label %119

119:                                              ; preds = %115
  %120 = load i32, i32* %4, align 4
  %121 = add nsw i32 %120, 1
  store i32 %121, i32* %4, align 4
  br label %112

122:                                              ; preds = %112
  br label %123

123:                                              ; preds = %122
  %124 = load i32, i32* %8, align 4
  %125 = add nsw i32 %124, 1
  store i32 %125, i32* %8, align 4
  br label %21

126:                                              ; preds = %21
  %127 = load i32, i32* %1, align 4
  ret i32 %127
}

declare dso_local i32 @__isoc99_scanf(i8*, ...) #1

declare dso_local i32 @printf(i8*, ...) #1


!llvm.module.flags = !{!0}
!llvm.ident = !{!1}

!0 = !{i32 1, !"wchar_size", i32 4}
!1 = !{!"clang version 10.0.0-4ubuntu1 "}
